target datalayout = "e-m:e-p270:32:32-p271:32:32-p272:64:64-i64:64-i128:128-f80:128-n8:16:32:64-S128"
target triple = "x86_64-pc-linux-gnu"

%"struct.icu_77::number::impl::MicroProps" = type <{ %"class.icu_77::number::impl::MicroPropsGenerator", %"struct.icu_77::number::impl::SimpleMicroProps", %"class.icu_77::number::impl::RoundingImpl", %"class.icu_77::number::impl::Padder", %"class.icu_77::number::IntegerWidth", i32, [9 x i8], [3 x i8], ptr, ptr, ptr, ptr, %struct.anon.5, %"class.icu_77::MeasureUnit", %"class.icu_77::number::impl::IntMeasures", i32, i32, i8, [7 x i8] }>
%"class.icu_77::number::impl::MicroPropsGenerator" = type { ptr }
%"struct.icu_77::number::impl::SimpleMicroProps" = type { [4 x i8], %"class.icu_77::number::impl::Grouper", i8, i32, %"class.icu_77::UnicodeString", ptr }
%"class.icu_77::number::impl::Grouper" = type { i16, i16, i16, i32 }
%"class.icu_77::UnicodeString" = type { %"class.icu_77::Replaceable", %"union.icu_77::UnicodeString::StackBufferOrFields" }
%"class.icu_77::Replaceable" = type { %"class.icu_77::UObject" }
%"class.icu_77::UObject" = type { ptr }
%"union.icu_77::UnicodeString::StackBufferOrFields" = type { %struct.anon.1, [32 x i8] }
%struct.anon.1 = type { i16, i32, i32, ptr }
%"class.icu_77::number::impl::RoundingImpl" = type <{ %"class.icu_77::number::Precision", i32, i8, [3 x i8] }>
%"class.icu_77::number::Precision" = type <{ i32, [4 x i8], %"union.icu_77::number::Precision::PrecisionUnion", i32, [4 x i8] }>
%"union.icu_77::number::Precision::PrecisionUnion" = type { %"struct.icu_77::number::Precision::PrecisionUnion::IncrementSettings" }
%"struct.icu_77::number::Precision::PrecisionUnion::IncrementSettings" = type { i64, i16, i16 }
%"class.icu_77::number::impl::Padder" = type { i32, %union.anon }
%union.anon = type { %struct.anon.2 }
%struct.anon.2 = type { i32, i32 }
%"class.icu_77::number::IntegerWidth" = type <{ %union.anon.3, i8, [3 x i8] }>
%union.anon.3 = type { i32, [4 x i8] }
%struct.anon.5 = type { %"class.icu_77::number::impl::ScientificModifier", %"class.icu_77::number::impl::EmptyModifier", %"class.icu_77::number::impl::EmptyModifier", %"class.icu_77::number::impl::MultiplierFormatHandler", %"class.icu_77::number::impl::SimpleModifier" }
%"class.icu_77::number::impl::ScientificModifier" = type { %"class.icu_77::number::impl::Modifier", i32, ptr }
%"class.icu_77::number::impl::Modifier" = type { ptr }
%"class.icu_77::number::impl::EmptyModifier" = type <{ %"class.icu_77::number::impl::Modifier", i8, [7 x i8] }>
%"class.icu_77::number::impl::MultiplierFormatHandler" = type { %"class.icu_77::number::impl::MicroPropsGenerator", %"class.icu_77::number::Scale", ptr }
%"class.icu_77::number::Scale" = type <{ i32, [4 x i8], ptr, i32, [4 x i8] }>
%"class.icu_77::number::impl::SimpleModifier" = type { %"class.icu_77::number::impl::Modifier", %"class.icu_77::UnicodeString", %"struct.icu_77::FormattedStringBuilder::Field", i8, i32, i32, i32, %"struct.icu_77::number::impl::Modifier::Parameters" }
%"struct.icu_77::FormattedStringBuilder::Field" = type { i8 }
%"struct.icu_77::number::impl::Modifier::Parameters" = type { ptr, i32, i32 }
%"class.icu_77::MeasureUnit" = type <{ %"class.icu_77::UObject", ptr, i16, i8, [5 x i8] }>
%"class.icu_77::number::impl::IntMeasures" = type <{ %"class.icu_77::MaybeStackArray.6", i32, [4 x i8] }>
%"class.icu_77::MaybeStackArray.6" = type { ptr, i32, i8, [2 x i64] }
%"class.icu_77::MemoryPool" = type { i32, %"class.icu_77::MaybeStackArray.0" }
%"class.icu_77::MaybeStackArray.0" = type { ptr, i32, i8, [8 x ptr] }
%"class.icu_77::MaybeStackVector" = type { %"class.icu_77::MemoryPool" }
%"class.icu_77::number::impl::UnitConversionHandler" = type { %"class.icu_77::number::impl::MicroPropsGenerator", %"class.icu_77::MeasureUnit", %"class.icu_77::LocalPointer", ptr }
%"class.icu_77::LocalPointer" = type { %"class.icu_77::LocalPointerBase" }
%"class.icu_77::LocalPointerBase" = type { ptr }

; Function Attrs: mustprogress nounwind uwtable
define linkonce_odr noundef ptr @_ZNK6icu_7716LocalPointerBaseINS_5units21ComplexUnitsConverterEEptEv(ptr noundef nonnull align 8 dereferenceable(8) %0) #0 comdat align 2 {
  %2 = alloca ptr, align 8
  store ptr %0, ptr %2, align 8, !tbaa !146
  %3 = load ptr, ptr %2, align 8
  %4 = getelementptr inbounds nuw %"class.icu_77::LocalPointerBase", ptr %3, i32 0, i32 0
  %5 = load ptr, ptr %4, align 8, !tbaa !145
  ret ptr %5
}

; Function Attrs: inlinehint mustprogress nounwind uwtable
define internal noundef signext i8 @_ZL9U_FAILURE10UErrorCode(i32 noundef %0) #2 {
  %2 = alloca i32, align 4
  store i32 %0, ptr %2, align 4, !tbaa !15
  %3 = load i32, ptr %2, align 4, !tbaa !15
  %4 = icmp sgt i32 %3, 0
  %5 = zext i1 %4 to i8
  ret i8 %5
}

; Function Attrs: mustprogress uwtable
define void @_ZNK6icu_776number4impl21UnitConversionHandler15processQuantityERNS1_15DecimalQuantityERNS1_10MicroPropsER10UErrorCode(ptr noundef nonnull align 8 dereferenceable(48) %0, ptr noundef nonnull align 8 dereferenceable(66) %1, ptr noundef nonnull align 8 dereferenceable(489) %2, ptr noundef nonnull align 4 dereferenceable(4) %3) unnamed_addr #1 align 2 personality ptr @__gxx_personality_v0 {
  %5 = alloca ptr, align 8
  %6 = alloca ptr, align 8
  %7 = alloca ptr, align 8
  %8 = alloca ptr, align 8
  %9 = alloca %"class.icu_77::MaybeStackVector", align 8
  %10 = alloca ptr, align 8
  %11 = alloca i32, align 4
  %12 = alloca i32, align 4
  store ptr %0, ptr %5, align 8, !tbaa !124
  store ptr %1, ptr %6, align 8, !tbaa !38
  store ptr %2, ptr %7, align 8, !tbaa !40
  store ptr %3, ptr %8, align 8, !tbaa !22
  %13 = load ptr, ptr %5, align 8
  %14 = getelementptr inbounds nuw %"class.icu_77::number::impl::UnitConversionHandler", ptr %13, i32 0, i32 3
  %15 = load ptr, ptr %14, align 8, !tbaa !126
  %16 = load ptr, ptr %6, align 8, !tbaa !38
  %17 = load ptr, ptr %7, align 8, !tbaa !40
  %18 = load ptr, ptr %8, align 8, !tbaa !22
  %19 = load ptr, ptr %15, align 8, !tbaa !108
  %20 = getelementptr inbounds ptr, ptr %19, i64 2
  %21 = load ptr, ptr %20, align 8
  call void %21(ptr noundef nonnull align 8 dereferenceable(8) %15, ptr noundef nonnull align 8 dereferenceable(66) %16, ptr noundef nonnull align 8 dereferenceable(489) %17, ptr noundef nonnull align 4 dereferenceable(4) %18)
  %22 = load ptr, ptr %8, align 8, !tbaa !22
  %23 = load i32, ptr %22, align 4, !tbaa !15
  %24 = call noundef signext i8 @_ZL9U_FAILURE10UErrorCode(i32 noundef %23)
  %25 = icmp ne i8 %24, 0
  br i1 %25, label %26, label %27

26:                                               ; preds = %4
  br label %59

27:                                               ; preds = %4
  %28 = load ptr, ptr %6, align 8, !tbaa !38
  call void @_ZN6icu_776number4impl15DecimalQuantity15roundToInfinityEv(ptr noundef nonnull align 8 dereferenceable(66) %28)
  call void @llvm.lifetime.start.p0(i64 88, ptr %9) #12
  %29 = getelementptr inbounds nuw %"class.icu_77::number::impl::UnitConversionHandler", ptr %13, i32 0, i32 2
  %30 = call noundef ptr @_ZNK6icu_7716LocalPointerBaseINS_5units21ComplexUnitsConverterEEptEv(ptr noundef nonnull align 8 dereferenceable(8) %29)
  %31 = load ptr, ptr %6, align 8, !tbaa !38
  %32 = call noundef double @_ZNK6icu_776number4impl15DecimalQuantity8toDoubleEv(ptr noundef nonnull align 8 dereferenceable(66) %31)
  %33 = load ptr, ptr %7, align 8, !tbaa !40
  %34 = getelementptr inbounds nuw %"struct.icu_77::number::impl::MicroProps", ptr %33, i32 0, i32 2
  %35 = load ptr, ptr %8, align 8, !tbaa !22
  call void @_ZNK6icu_775units21ComplexUnitsConverter7convertEdPNS_6number4impl12RoundingImplER10UErrorCode(ptr dead_on_unwind writable sret(%"class.icu_77::MaybeStackVector") align 8 %9, ptr noundef nonnull align 8 dereferenceable(184) %30, double noundef %32, ptr noundef %34, ptr noundef nonnull align 4 dereferenceable(4) %35)
  %36 = getelementptr inbounds nuw %"class.icu_77::number::impl::UnitConversionHandler", ptr %13, i32 0, i32 1
  %37 = load ptr, ptr %7, align 8, !tbaa !40
  %38 = getelementptr inbounds nuw %"struct.icu_77::number::impl::MicroProps", ptr %37, i32 0, i32 13
  %39 = invoke noundef nonnull align 8 dereferenceable(19) ptr @_ZN6icu_7711MeasureUnitaSERKS0_(ptr noundef nonnull align 8 dereferenceable(19) %38, ptr noundef nonnull align 8 dereferenceable(19) %36)
          to label %40 unwind label %47

40:                                               ; preds = %27
  %41 = load ptr, ptr %8, align 8, !tbaa !22
  %42 = load i32, ptr %41, align 4, !tbaa !15
  %43 = invoke noundef signext i8 @_ZL9U_FAILURE10UErrorCode(i32 noundef %42)
          to label %44 unwind label %47

44:                                               ; preds = %40
  %45 = icmp ne i8 %43, 0
  br i1 %45, label %46, label %51

46:                                               ; preds = %44
  store i32 1, ptr %12, align 4
  br label %57

47:                                               ; preds = %51, %40, %27
  %48 = landingpad { ptr, i32 }
          cleanup
  %49 = extractvalue { ptr, i32 } %48, 0
  store ptr %49, ptr %10, align 8
  %50 = extractvalue { ptr, i32 } %48, 1
  store i32 %50, ptr %11, align 4
  call void @_ZN6icu_7710MemoryPoolINS_7MeasureELi8EED2Ev(ptr noundef nonnull align 8 dereferenceable(88) %9) #12
  call void @llvm.lifetime.end.p0(i64 88, ptr %9) #12
  br label %60

51:                                               ; preds = %44
  %52 = load ptr, ptr %6, align 8, !tbaa !38
  %53 = load ptr, ptr %7, align 8, !tbaa !40
  %54 = load ptr, ptr %8, align 8, !tbaa !22
  %55 = load i32, ptr %54, align 4, !tbaa !15
  invoke void @_Z24mixedMeasuresToMicros_77RKN6icu_7716MaybeStackVectorINS_7MeasureELi8EEEPNS_6number4impl15DecimalQuantityEPNS6_10MicroPropsE10UErrorCode(ptr noundef nonnull align 8 dereferenceable(88) %9, ptr noundef %52, ptr noundef %53, i32 noundef %55)
          to label %56 unwind label %47

56:                                               ; preds = %51
  store i32 0, ptr %12, align 4
  br label %57

57:                                               ; preds = %56, %46
  call void @_ZN6icu_7710MemoryPoolINS_7MeasureELi8EED2Ev(ptr noundef nonnull align 8 dereferenceable(88) %9) #12
  call void @llvm.lifetime.end.p0(i64 88, ptr %9) #12
  %58 = load i32, ptr %12, align 4
  switch i32 %58, label %65 [
    i32 0, label %59
    i32 1, label %59
  ]

59:                                               ; preds = %26, %57, %57
  ret void

60:                                               ; preds = %47
  %61 = load ptr, ptr %10, align 8
  %62 = load i32, ptr %11, align 4
  %63 = insertvalue { ptr, i32 } poison, ptr %61, 0
  %64 = insertvalue { ptr, i32 } %63, i32 %62, 1
  resume { ptr, i32 } %64

65:                                               ; preds = %57
  unreachable
}