; Function Attrs: mustprogress uwtable
define void @_ZNK6icu_776number4impl21UnitConversionHandler15processQuantityERNS1_15DecimalQuantityERNS1_10MicroPropsER10UErrorCode(ptr noundef nonnull align 8 dereferenceable(48) %0, ptr noundef nonnull align 8 dereferenceable(66) %1, ptr noundef nonnull align 8 dereferenceable(489) %2, ptr noundef nonnull align 4 dereferenceable(4) %3) unnamed_addr #1 align 2 personality ptr @__gxx_personality_v0 {
  %5 = alloca %"class.icu_77::MaybeStackVector", align 8
  %6 = getelementptr inbounds nuw i8, ptr %0, i64 40
  %7 = load ptr, ptr %6, align 8, !tbaa !105
  %8 = load ptr, ptr %7, align 8, !tbaa !78
  %9 = getelementptr inbounds nuw i8, ptr %8, i64 16
  %10 = load ptr, ptr %9, align 8
  tail call void %10(ptr noundef nonnull align 8 dereferenceable(8) %7, ptr noundef nonnull align 8 dereferenceable(66) %1, ptr noundef nonnull align 8 dereferenceable(489) %2, ptr noundef nonnull align 4 dereferenceable(4) %3)
  %11 = load i32, ptr %3, align 4, !tbaa !13
  %12 = icmp slt i32 %11, 1
  br i1 %12, label %13, label %53

13:                                               ; preds = %4
  tail call void @_ZN6icu_776number4impl15DecimalQuantity15roundToInfinityEv(ptr noundef nonnull align 8 dereferenceable(66) %1)
  call void @llvm.lifetime.start.p0(i64 88, ptr nonnull %5) #15
  %14 = getelementptr inbounds nuw i8, ptr %0, i64 32
  %15 = load ptr, ptr %14, align 8, !tbaa !102
  %16 = tail call noundef double @_ZNK6icu_776number4impl15DecimalQuantity8toDoubleEv(ptr noundef nonnull align 8 dereferenceable(66) %1)
  %17 = getelementptr inbounds nuw i8, ptr %2, i64 104
  call void @_ZNK6icu_775units21ComplexUnitsConverter7convertEdPNS_6number4impl12RoundingImplER10UErrorCode(ptr dead_on_unwind nonnull writable sret(%"class.icu_77::MaybeStackVector") align 8 %5, ptr noundef nonnull align 8 dereferenceable(184) %15, double noundef %16, ptr noundef nonnull %17, ptr noundef nonnull align 4 dereferenceable(4) %3)
  %18 = getelementptr inbounds nuw i8, ptr %0, i64 8
  %19 = getelementptr inbounds nuw i8, ptr %2, i64 416
  %20 = invoke noundef nonnull align 8 dereferenceable(19) ptr @_ZN6icu_7711MeasureUnitaSERKS0_(ptr noundef nonnull align 8 dereferenceable(19) %19, ptr noundef nonnull align 8 dereferenceable(19) %18)
          to label %21 unwind label %24

21:                                               ; preds = %13
  %22 = load i32, ptr %3, align 4, !tbaa !13
  %23 = icmp slt i32 %22, 1
  br i1 %23, label %26, label %27

24:                                               ; preds = %26, %13
  %25 = landingpad { ptr, i32 }
          cleanup
  call void @_ZN6icu_7710MemoryPoolINS_7MeasureELi8EED2Ev(ptr noundef nonnull align 8 dereferenceable(88) %5) #15
  call void @llvm.lifetime.end.p0(i64 88, ptr nonnull %5) #15
  resume { ptr, i32 } %25

26:                                               ; preds = %21
  invoke void @_Z24mixedMeasuresToMicros_77RKN6icu_7716MaybeStackVectorINS_7MeasureELi8EEEPNS_6number4impl15DecimalQuantityEPNS6_10MicroPropsE10UErrorCode(ptr noundef nonnull align 8 dereferenceable(88) %5, ptr noundef nonnull %1, ptr noundef nonnull %2, i32 noundef %22)
          to label %27 unwind label %24

27:                                               ; preds = %26, %21
  %28 = load i32, ptr %5, align 8, !tbaa !21
  %29 = icmp sgt i32 %28, 0
  br i1 %29, label %.lr.ph.i, label %._crit_edge.i

.lr.ph.i:                                         ; preds = %27
  %30 = getelementptr inbounds nuw i8, ptr %5, i64 8
  br label %39

._crit_edge.i:                                    ; preds = %49, %27
  %31 = getelementptr inbounds nuw i8, ptr %5, i64 20
  %32 = load i8, ptr %31, align 4, !tbaa !100
  %.not.i.i.i = icmp eq i8 %32, 0
  br i1 %.not.i.i.i, label %_ZN6icu_7710MemoryPoolINS_7MeasureELi8EED2Ev.exit, label %33

33:                                               ; preds = %._crit_edge.i
  %34 = getelementptr inbounds nuw i8, ptr %5, i64 8
  %35 = load ptr, ptr %34, align 8, !tbaa !70
  invoke void @uprv_free_77(ptr noundef %35)
          to label %_ZN6icu_7710MemoryPoolINS_7MeasureELi8EED2Ev.exit unwind label %36

36:                                               ; preds = %33
  %37 = landingpad { ptr, i32 }
          catch ptr null
  %38 = extractvalue { ptr, i32 } %37, 0
  call void @__clang_call_terminate(ptr %38) #17
  unreachable

39:                                               ; preds = %49, %.lr.ph.i
  %40 = phi i32 [ %28, %.lr.ph.i ], [ %50, %49 ]
  %indvars.iv.i = phi i64 [ 0, %.lr.ph.i ], [ %indvars.iv.next.i, %49 ]
  %41 = load ptr, ptr %30, align 8, !tbaa !70
  %42 = getelementptr inbounds nuw ptr, ptr %41, i64 %indvars.iv.i
  %43 = load ptr, ptr %42, align 8, !tbaa !71
  %44 = icmp eq ptr %43, null
  br i1 %44, label %49, label %45

45:                                               ; preds = %39
  %46 = load ptr, ptr %43, align 8, !tbaa !78
  %47 = getelementptr inbounds nuw i8, ptr %46, i64 8
  %48 = load ptr, ptr %47, align 8
  call void %48(ptr noundef nonnull align 8 dereferenceable(128) %43) #15
  %.pre.i = load i32, ptr %5, align 8, !tbaa !21
  br label %49

49:                                               ; preds = %45, %39
  %50 = phi i32 [ %40, %39 ], [ %.pre.i, %45 ]
  %indvars.iv.next.i = add nuw nsw i64 %indvars.iv.i, 1
  %51 = sext i32 %50 to i64
  %52 = icmp slt i64 %indvars.iv.next.i, %51
  br i1 %52, label %39, label %._crit_edge.i, !llvm.loop !101

_ZN6icu_7710MemoryPoolINS_7MeasureELi8EED2Ev.exit: ; preds = %._crit_edge.i, %33
  call void @llvm.lifetime.end.p0(i64 88, ptr nonnull %5) #15
  br label %53

53:                                               ; preds = %4, %_ZN6icu_7710MemoryPoolINS_7MeasureELi8EED2Ev.exit
  ret void
}